#include <math.h>
#include <stdio.h>
#include <stdlib.h>
#include <string.h>
#define LEN 100
#define ASCII 100
#define MAX_N 100
#define MAX_N 100
#define L 100
#define MAX 100
#define ASC 100
#define null 0
#define Len 100
#define M 100
#define SUM 100
#define NUMBER 100
#define SIZE 100
#define N 100
#define Max 100
#define X 100
#define Y 100
#define A 100
#define MAXN 100
#define MAXSIZE 100
struct student
{
	int age;
	float score;
	char name[100],sex,add[20],num[20];
	struct student *p;
};
void main()
{
	struct student *p1,*head;
	p1=head=(struct student *) malloc(LEN);
	p1->p=NULL;
	scanf("%s %s %c %d %f %s",p1->num,p1->name,&p1->sex,&p1->age,&p1->score,p1->add);
	while (1)
	{
		p1=(struct student *) malloc(LEN);
		scanf("%s",p1->num);
		if (p1->num[0]!='e')
		{
		scanf("%s %c %d %f %s",p1->name,&p1->sex,&p1->age,&p1->score,p1->add);
		p1->p=head;
		head=p1;
		}
		else break;
	}
	p1=head;
	while (p1!=NULL)
	{
		printf("%s %s %c %d %g %s\n",p1->num,p1->name,p1->sex,p1->age,p1->score,p1->add);
		p1=p1->p;
	}
}

	
