; ModuleID = '31/1713.c'
source_filename = "31/1713.c"
target datalayout = "e-m:e-p270:32:32-p271:32:32-p272:64:64-i64:64-f80:128-n8:16:32:64-S128"
target triple = "x86_64-pc-linux-gnu"

%struct.student = type { i32, float, [100 x i8], i8, [20 x i8], [20 x i8], %struct.student* }

@.str = private unnamed_addr constant [18 x i8] c"%s %s %c %d %f %s\00", align 1
@.str.1 = private unnamed_addr constant [3 x i8] c"%s\00", align 1
@.str.2 = private unnamed_addr constant [15 x i8] c"%s %c %d %f %s\00", align 1
@.str.3 = private unnamed_addr constant [19 x i8] c"%s %s %c %d %g %s\0A\00", align 1

; Function Attrs: noinline nounwind uwtable
define dso_local void @main() #0 {
  %1 = alloca %struct.student*, align 8
  %2 = alloca %struct.student*, align 8
  %3 = call noalias i8* @malloc(i64 100) #3
  %4 = bitcast i8* %3 to %struct.student*
  store %struct.student* %4, %struct.student** %2, align 8
  store %struct.student* %4, %struct.student** %1, align 8
  %5 = load %struct.student*, %struct.student** %1, align 8
  %6 = getelementptr inbounds %struct.student, %struct.student* %5, i32 0, i32 6
  store %struct.student* null, %struct.student** %6, align 8
  %7 = load %struct.student*, %struct.student** %1, align 8
  %8 = getelementptr inbounds %struct.student, %struct.student* %7, i32 0, i32 5
  %9 = getelementptr inbounds [20 x i8], [20 x i8]* %8, i64 0, i64 0
  %10 = load %struct.student*, %struct.student** %1, align 8
  %11 = getelementptr inbounds %struct.student, %struct.student* %10, i32 0, i32 2
  %12 = getelementptr inbounds [100 x i8], [100 x i8]* %11, i64 0, i64 0
  %13 = load %struct.student*, %struct.student** %1, align 8
  %14 = getelementptr inbounds %struct.student, %struct.student* %13, i32 0, i32 3
  %15 = load %struct.student*, %struct.student** %1, align 8
  %16 = getelementptr inbounds %struct.student, %struct.student* %15, i32 0, i32 0
  %17 = load %struct.student*, %struct.student** %1, align 8
  %18 = getelementptr inbounds %struct.student, %struct.student* %17, i32 0, i32 1
  %19 = load %struct.student*, %struct.student** %1, align 8
  %20 = getelementptr inbounds %struct.student, %struct.student* %19, i32 0, i32 4
  %21 = getelementptr inbounds [20 x i8], [20 x i8]* %20, i64 0, i64 0
  %22 = call i32 (i8*, ...) @__isoc99_scanf(i8* getelementptr inbounds ([18 x i8], [18 x i8]* @.str, i64 0, i64 0), i8* %9, i8* %12, i8* %14, i32* %16, float* %18, i8* %21)
  br label %23

23:                                               ; preds = %0, %55
  %24 = call noalias i8* @malloc(i64 100) #3
  %25 = bitcast i8* %24 to %struct.student*
  store %struct.student* %25, %struct.student** %1, align 8
  %26 = load %struct.student*, %struct.student** %1, align 8
  %27 = getelementptr inbounds %struct.student, %struct.student* %26, i32 0, i32 5
  %28 = getelementptr inbounds [20 x i8], [20 x i8]* %27, i64 0, i64 0
  %29 = call i32 (i8*, ...) @__isoc99_scanf(i8* getelementptr inbounds ([3 x i8], [3 x i8]* @.str.1, i64 0, i64 0), i8* %28)
  %30 = load %struct.student*, %struct.student** %1, align 8
  %31 = getelementptr inbounds %struct.student, %struct.student* %30, i32 0, i32 5
  %32 = getelementptr inbounds [20 x i8], [20 x i8]* %31, i64 0, i64 0
  %33 = load i8, i8* %32, align 1
  %34 = sext i8 %33 to i32
  %35 = icmp ne i32 %34, 101
  br i1 %35, label %36, label %54

36:                                               ; preds = %23
  %37 = load %struct.student*, %struct.student** %1, align 8
  %38 = getelementptr inbounds %struct.student, %struct.student* %37, i32 0, i32 2
  %39 = getelementptr inbounds [100 x i8], [100 x i8]* %38, i64 0, i64 0
  %40 = load %struct.student*, %struct.student** %1, align 8
  %41 = getelementptr inbounds %struct.student, %struct.student* %40, i32 0, i32 3
  %42 = load %struct.student*, %struct.student** %1, align 8
  %43 = getelementptr inbounds %struct.student, %struct.student* %42, i32 0, i32 0
  %44 = load %struct.student*, %struct.student** %1, align 8
  %45 = getelementptr inbounds %struct.student, %struct.student* %44, i32 0, i32 1
  %46 = load %struct.student*, %struct.student** %1, align 8
  %47 = getelementptr inbounds %struct.student, %struct.student* %46, i32 0, i32 4
  %48 = getelementptr inbounds [20 x i8], [20 x i8]* %47, i64 0, i64 0
  %49 = call i32 (i8*, ...) @__isoc99_scanf(i8* getelementptr inbounds ([15 x i8], [15 x i8]* @.str.2, i64 0, i64 0), i8* %39, i8* %41, i32* %43, float* %45, i8* %48)
  %50 = load %struct.student*, %struct.student** %2, align 8
  %51 = load %struct.student*, %struct.student** %1, align 8
  %52 = getelementptr inbounds %struct.student, %struct.student* %51, i32 0, i32 6
  store %struct.student* %50, %struct.student** %52, align 8
  %53 = load %struct.student*, %struct.student** %1, align 8
  store %struct.student* %53, %struct.student** %2, align 8
  br label %55

54:                                               ; preds = %23
  br label %56

55:                                               ; preds = %36
  br label %23

56:                                               ; preds = %54
  %57 = load %struct.student*, %struct.student** %2, align 8
  store %struct.student* %57, %struct.student** %1, align 8
  br label %58

58:                                               ; preds = %61, %56
  %59 = load %struct.student*, %struct.student** %1, align 8
  %60 = icmp ne %struct.student* %59, null
  br i1 %60, label %61, label %86

61:                                               ; preds = %58
  %62 = load %struct.student*, %struct.student** %1, align 8
  %63 = getelementptr inbounds %struct.student, %struct.student* %62, i32 0, i32 5
  %64 = getelementptr inbounds [20 x i8], [20 x i8]* %63, i64 0, i64 0
  %65 = load %struct.student*, %struct.student** %1, align 8
  %66 = getelementptr inbounds %struct.student, %struct.student* %65, i32 0, i32 2
  %67 = getelementptr inbounds [100 x i8], [100 x i8]* %66, i64 0, i64 0
  %68 = load %struct.student*, %struct.student** %1, align 8
  %69 = getelementptr inbounds %struct.student, %struct.student* %68, i32 0, i32 3
  %70 = load i8, i8* %69, align 4
  %71 = sext i8 %70 to i32
  %72 = load %struct.student*, %struct.student** %1, align 8
  %73 = getelementptr inbounds %struct.student, %struct.student* %72, i32 0, i32 0
  %74 = load i32, i32* %73, align 8
  %75 = load %struct.student*, %struct.student** %1, align 8
  %76 = getelementptr inbounds %struct.student, %struct.student* %75, i32 0, i32 1
  %77 = load float, float* %76, align 4
  %78 = fpext float %77 to double
  %79 = load %struct.student*, %struct.student** %1, align 8
  %80 = getelementptr inbounds %struct.student, %struct.student* %79, i32 0, i32 4
  %81 = getelementptr inbounds [20 x i8], [20 x i8]* %80, i64 0, i64 0
  %82 = call i32 (i8*, ...) @printf(i8* getelementptr inbounds ([19 x i8], [19 x i8]* @.str.3, i64 0, i64 0), i8* %64, i8* %67, i32 %71, i32 %74, double %78, i8* %81)
  %83 = load %struct.student*, %struct.student** %1, align 8
  %84 = getelementptr inbounds %struct.student, %struct.student* %83, i32 0, i32 6
  %85 = load %struct.student*, %struct.student** %84, align 8
  store %struct.student* %85, %struct.student** %1, align 8
  br label %58

86:                                               ; preds = %58
  ret void
}

; Function Attrs: nounwind
declare dso_local noalias i8* @malloc(i64) #1

declare dso_local i32 @__isoc99_scanf(i8*, ...) #2

declare dso_local i32 @printf(i8*, ...) #2


!llvm.module.flags = !{!0}
!llvm.ident = !{!1}

!0 = !{i32 1, !"wchar_size", i32 4}
!1 = !{!"clang version 10.0.0-4ubuntu1 "}
